target datalayout = "e-m:e-p270:32:32-p271:32:32-p272:64:64-i64:64-i128:128-f80:128-n8:16:32:64-S128"
target triple = "x86_64-pc-linux-gnu"

%"class.llvm::function_ref" = type { ptr, i64 }
%class.anon.1 = type { ptr, i64, i64 }

; Function Attrs: mustprogress nounwind uwtable
define linkonce_odr hidden void @_ZNK4llvm12function_refIFvmEEclEm(ptr noundef nonnull align 8 dereferenceable(16) %0, i64 noundef %1) #0 comdat align 2 {
  %3 = alloca ptr, align 8
  %4 = alloca i64, align 8
  store ptr %0, ptr %3, align 8
  store i64 %1, ptr %4, align 8
  %5 = load ptr, ptr %3, align 8
  %6 = getelementptr inbounds nuw %"class.llvm::function_ref", ptr %5, i32 0, i32 0
  %7 = load ptr, ptr %6, align 8
  %8 = getelementptr inbounds nuw %"class.llvm::function_ref", ptr %5, i32 0, i32 1
  %9 = load i64, ptr %8, align 8
  %10 = load i64, ptr %4, align 8
  call void %7(i64 noundef %9, i64 noundef %10)
  ret void
}

; Function Attrs: mustprogress nounwind uwtable
define internal void @"_ZZN4llvm11parallelForEmmNS_12function_refIFvmEEEENK3$_1clEv"(ptr noundef nonnull align 8 dereferenceable(24) %0) #0 align 2 {
  %2 = alloca ptr, align 8
  %3 = alloca i64, align 8
  store ptr %0, ptr %2, align 8
  %4 = load ptr, ptr %2, align 8
  %5 = getelementptr inbounds nuw %class.anon.1, ptr %4, i32 0, i32 1
  %6 = load i64, ptr %5, align 8
  store i64 %6, ptr %3, align 8
  br label %7

7:                                                ; preds = %16, %1
  %8 = load i64, ptr %3, align 8
  %9 = getelementptr inbounds nuw %class.anon.1, ptr %4, i32 0, i32 2
  %10 = load i64, ptr %9, align 8
  %11 = icmp ne i64 %8, %10
  br i1 %11, label %12, label %19

12:                                               ; preds = %7
  %13 = getelementptr inbounds nuw %class.anon.1, ptr %4, i32 0, i32 0
  %14 = load ptr, ptr %13, align 8
  %15 = load i64, ptr %3, align 8
  call void @_ZNK4llvm12function_refIFvmEEclEm(ptr noundef nonnull align 8 dereferenceable(16) %14, i64 noundef %15)
  br label %16

16:                                               ; preds = %12
  %17 = load i64, ptr %3, align 8
  %18 = add i64 %17, 1
  store i64 %18, ptr %3, align 8
  br label %7, !llvm.loop !25

19:                                               ; preds = %7
  ret void
}

; Function Attrs: mustprogress nounwind uwtable
define linkonce_odr hidden noundef ptr @_ZNKSt9_Any_data9_M_accessEv(ptr noundef nonnull align 8 dereferenceable(16) %0) #0 comdat align 2 {
  %2 = alloca ptr, align 8
  store ptr %0, ptr %2, align 8
  %3 = load ptr, ptr %2, align 8
  %4 = getelementptr inbounds [16 x i8], ptr %3, i64 0, i64 0
  ret ptr %4
}

; Function Attrs: mustprogress nounwind uwtable
define internal void @"_ZSt13__invoke_implIvRZN4llvm11parallelForEmmNS0_12function_refIFvmEEEE3$_1JEET_St14__invoke_otherOT0_DpOT1_"(ptr noundef nonnull align 8 dereferenceable(24) %0) #0 {
  %2 = alloca ptr, align 8
  store ptr %0, ptr %2, align 8
  %3 = load ptr, ptr %2, align 8
  call void @"_ZZN4llvm11parallelForEmmNS_12function_refIFvmEEEENK3$_1clEv"(ptr noundef nonnull align 8 dereferenceable(24) %3)
  ret void
}

; Function Attrs: mustprogress nounwind uwtable
define internal noundef nonnull align 8 dereferenceable(8) ptr @"_ZNKSt9_Any_data9_M_accessIPZN4llvm11parallelForEmmNS1_12function_refIFvmEEEE3$_1EERKT_v"(ptr noundef nonnull align 8 dereferenceable(16) %0) #0 align 2 {
  %2 = alloca ptr, align 8
  store ptr %0, ptr %2, align 8
  %3 = load ptr, ptr %2, align 8
  %4 = call noundef ptr @_ZNKSt9_Any_data9_M_accessEv(ptr noundef nonnull align 8 dereferenceable(16) %3) #2
  ret ptr %4
}

; Function Attrs: mustprogress nounwind uwtable
define internal void @"_ZSt10__invoke_rIvRZN4llvm11parallelForEmmNS0_12function_refIFvmEEEE3$_1JEENSt9enable_ifIX16is_invocable_r_vIT_T0_DpT1_EES7_E4typeEOS8_DpOS9_"(ptr noundef nonnull align 8 dereferenceable(24) %0) #0 {
  %2 = alloca ptr, align 8
  store ptr %0, ptr %2, align 8
  %3 = load ptr, ptr %2, align 8
  call void @"_ZSt13__invoke_implIvRZN4llvm11parallelForEmmNS0_12function_refIFvmEEEE3$_1JEET_St14__invoke_otherOT0_DpOT1_"(ptr noundef nonnull align 8 dereferenceable(24) %3)
  ret void
}

; Function Attrs: mustprogress nounwind uwtable
define internal noundef ptr @"_ZNSt14_Function_base13_Base_managerIZN4llvm11parallelForEmmNS1_12function_refIFvmEEEE3$_1E14_M_get_pointerERKSt9_Any_data"(ptr noundef nonnull align 8 dereferenceable(16) %0) #0 align 2 {
  %2 = alloca ptr, align 8
  store ptr %0, ptr %2, align 8
  %3 = load ptr, ptr %2, align 8
  %4 = call noundef nonnull align 8 dereferenceable(8) ptr @"_ZNKSt9_Any_data9_M_accessIPZN4llvm11parallelForEmmNS1_12function_refIFvmEEEE3$_1EERKT_v"(ptr noundef nonnull align 8 dereferenceable(16) %3) #2
  %5 = load ptr, ptr %4, align 8
  ret ptr %5
}

; Function Attrs: mustprogress nounwind uwtable
define internal void @"_ZNSt17_Function_handlerIFvvEZN4llvm11parallelForEmmNS1_12function_refIFvmEEEE3$_1E9_M_invokeERKSt9_Any_data"(ptr noundef nonnull align 8 dereferenceable(16) %0) #0 align 2 {
  %2 = alloca ptr, align 8
  store ptr %0, ptr %2, align 8
  %3 = load ptr, ptr %2, align 8
  %4 = call noundef ptr @"_ZNSt14_Function_base13_Base_managerIZN4llvm11parallelForEmmNS1_12function_refIFvmEEEE3$_1E14_M_get_pointerERKSt9_Any_data"(ptr noundef nonnull align 8 dereferenceable(16) %3) #2
  call void @"_ZSt10__invoke_rIvRZN4llvm11parallelForEmmNS0_12function_refIFvmEEEE3$_1JEENSt9enable_ifIX16is_invocable_r_vIT_T0_DpT1_EES7_E4typeEOS8_DpOS9_"(ptr noundef nonnull align 8 dereferenceable(24) %4)
  ret void
}