; Function Attrs: mustprogress nounwind uwtable
define internal void @"_ZNSt17_Function_handlerIFvvEZN4llvm11parallelForEmmNS1_12function_refIFvmEEEE3$_1E9_M_invokeERKSt9_Any_data"(ptr nocapture noundef nonnull readonly align 8 dereferenceable(16) %0) #0 align 2 {
  %.val = load ptr, ptr %0, align 8
  %2 = getelementptr inbounds nuw i8, ptr %.val, i64 8
  %3 = load i64, ptr %2, align 8
  %4 = getelementptr inbounds nuw i8, ptr %.val, i64 16
  %5 = load i64, ptr %4, align 8
  %.not3.i.i.i = icmp eq i64 %3, %5
  br i1 %.not3.i.i.i, label %"_ZSt10__invoke_rIvRZN4llvm11parallelForEmmNS0_12function_refIFvmEEEE3$_1JEENSt9enable_ifIX16is_invocable_r_vIT_T0_DpT1_EES7_E4typeEOS8_DpOS9_.exit", label %.lr.ph.i.i.i

.lr.ph.i.i.i:                                     ; preds = %1, %.lr.ph.i.i.i
  %.04.i.i.i = phi i64 [ %10, %.lr.ph.i.i.i ], [ %3, %1 ]
  %6 = load ptr, ptr %.val, align 8
  %7 = load ptr, ptr %6, align 8
  %8 = getelementptr inbounds nuw i8, ptr %6, i64 8
  %9 = load i64, ptr %8, align 8
  tail call void %7(i64 noundef %9, i64 noundef %.04.i.i.i) #18
  %10 = add i64 %.04.i.i.i, 1
  %11 = load i64, ptr %4, align 8
  %.not.i.i.i = icmp eq i64 %10, %11
  br i1 %.not.i.i.i, label %"_ZSt10__invoke_rIvRZN4llvm11parallelForEmmNS0_12function_refIFvmEEEE3$_1JEENSt9enable_ifIX16is_invocable_r_vIT_T0_DpT1_EES7_E4typeEOS8_DpOS9_.exit", label %.lr.ph.i.i.i, !llvm.loop !72

"_ZSt10__invoke_rIvRZN4llvm11parallelForEmmNS0_12function_refIFvmEEEE3$_1JEENSt9enable_ifIX16is_invocable_r_vIT_T0_DpT1_EES7_E4typeEOS8_DpOS9_.exit": ; preds = %.lr.ph.i.i.i, %1
  ret void
}